target datalayout = "e-m:e-p270:32:32-p271:32:32-p272:64:64-i64:64-i128:128-f80:128-n8:16:32:64-S128"
target triple = "x86_64-pc-linux-gnu"

%struct.PJconsts = type { ptr, ptr, ptr, ptr, ptr, ptr, ptr, ptr, ptr, ptr, ptr, ptr, i32, ptr, ptr, ptr, ptr, ptr, ptr, ptr, ptr, double, double, double, double, double, double, double, double, double, double, double, double, double, double, double, double, double, double, double, double, double, double, i32, i32, i32, i32, i32, i32, i32, i32, i32, i32, i32, ptr, ptr, ptr, ptr, ptr, ptr, double, double, double, double, double, double, double, double, double, double, double, i32, [7 x double], i32, ptr, ptr, double, double, i32, [4 x i8], %"class.std::shared_ptr", i8, double, i8, %"class.std::__cxx11::basic_string", %"class.std::__cxx11::basic_string", %"class.std::__cxx11::basic_string", i8, %"class.std::vector", i32, %"class.std::vector.3", i32, i8, i8, i8, ptr }
%"class.std::shared_ptr" = type { %"class.std::__shared_ptr" }
%"class.std::__shared_ptr" = type { ptr, %"class.std::__shared_count" }
%"class.std::__shared_count" = type { ptr }
%"class.std::__cxx11::basic_string" = type { %"struct.std::__cxx11::basic_string<char>::_Alloc_hider", i64, %union.anon }
%"struct.std::__cxx11::basic_string<char>::_Alloc_hider" = type { ptr }
%union.anon = type { i64, [8 x i8] }
%"class.std::vector" = type { %"struct.std::_Vector_base" }
%"struct.std::_Vector_base" = type { %"struct.std::_Vector_base<osgeo::proj::operation::GridDescription, std::allocator<osgeo::proj::operation::GridDescription>>::_Vector_impl" }
%"struct.std::_Vector_base<osgeo::proj::operation::GridDescription, std::allocator<osgeo::proj::operation::GridDescription>>::_Vector_impl" = type { %"struct.std::_Vector_base<osgeo::proj::operation::GridDescription, std::allocator<osgeo::proj::operation::GridDescription>>::_Vector_impl_data" }
%"struct.std::_Vector_base<osgeo::proj::operation::GridDescription, std::allocator<osgeo::proj::operation::GridDescription>>::_Vector_impl_data" = type { ptr, ptr, ptr }
%"class.std::vector.3" = type { %"struct.std::_Vector_base.4" }
%"struct.std::_Vector_base.4" = type { %"struct.std::_Vector_base<PJCoordOperation, std::allocator<PJCoordOperation>>::_Vector_impl" }
%"struct.std::_Vector_base<PJCoordOperation, std::allocator<PJCoordOperation>>::_Vector_impl" = type { %"struct.std::_Vector_base<PJCoordOperation, std::allocator<PJCoordOperation>>::_Vector_impl_data" }
%"struct.std::_Vector_base<PJCoordOperation, std::allocator<PJCoordOperation>>::_Vector_impl_data" = type { ptr, ptr, ptr }
%union.PROJVALUE = type { double }

@.str.1 = private unnamed_addr constant [8 x i8] c"tlat_ts\00", align 1
@.str.2 = private unnamed_addr constant [8 x i8] c"rlat_ts\00", align 1
@.str.3 = private unnamed_addr constant [53 x i8] c"Invalid value for lat_ts: |lat_ts| should be <= 90\C2\B0\00", align 1

; Function Attrs: mustprogress uwtable
define hidden noundef ptr @_Z33pj_projection_specific_setup_mercP8PJconsts(ptr noundef %0) #0 {
  %2 = alloca ptr, align 8
  %3 = alloca ptr, align 8
  %4 = alloca double, align 8
  %5 = alloca i32, align 4
  %6 = alloca %union.PROJVALUE, align 8
  %7 = alloca %union.PROJVALUE, align 8
  %8 = alloca i32, align 4
  store ptr %0, ptr %3, align 8, !tbaa !3
  call void @llvm.lifetime.start.p0(i64 8, ptr %4) #7
  store double 0.000000e+00, ptr %4, align 8, !tbaa !41
  call void @llvm.lifetime.start.p0(i64 4, ptr %5) #7
  call void @llvm.lifetime.start.p0(i64 8, ptr %6) #7
  %9 = load ptr, ptr %3, align 8, !tbaa !3
  %10 = getelementptr inbounds nuw %struct.PJconsts, ptr %9, i32 0, i32 0
  %11 = load ptr, ptr %10, align 8, !tbaa !42
  %12 = load ptr, ptr %3, align 8, !tbaa !3
  %13 = getelementptr inbounds nuw %struct.PJconsts, ptr %12, i32 0, i32 3
  %14 = load ptr, ptr %13, align 8, !tbaa !43
  %15 = call i64 @_Z8pj_paramP6pj_ctxP8ARG_listPKc(ptr noundef %11, ptr noundef %14, ptr noundef @.str.1)
  %16 = getelementptr inbounds nuw %union.PROJVALUE, ptr %6, i32 0, i32 0
  store i64 %15, ptr %16, align 8
  %17 = load i32, ptr %6, align 8, !tbaa !44
  store i32 %17, ptr %5, align 4, !tbaa !45
  %18 = icmp ne i32 %17, 0
  call void @llvm.lifetime.end.p0(i64 8, ptr %6) #7
  br i1 %18, label %19, label %37

19:                                               ; preds = %1
  call void @llvm.lifetime.start.p0(i64 8, ptr %7) #7
  %20 = load ptr, ptr %3, align 8, !tbaa !3
  %21 = getelementptr inbounds nuw %struct.PJconsts, ptr %20, i32 0, i32 0
  %22 = load ptr, ptr %21, align 8, !tbaa !42
  %23 = load ptr, ptr %3, align 8, !tbaa !3
  %24 = getelementptr inbounds nuw %struct.PJconsts, ptr %23, i32 0, i32 3
  %25 = load ptr, ptr %24, align 8, !tbaa !43
  %26 = call i64 @_Z8pj_paramP6pj_ctxP8ARG_listPKc(ptr noundef %22, ptr noundef %25, ptr noundef @.str.2)
  %27 = getelementptr inbounds nuw %union.PROJVALUE, ptr %7, i32 0, i32 0
  store i64 %26, ptr %27, align 8
  %28 = load double, ptr %7, align 8, !tbaa !44
  %29 = call double @llvm.fabs.f64(double %28)
  store double %29, ptr %4, align 8, !tbaa !41
  call void @llvm.lifetime.end.p0(i64 8, ptr %7) #7
  %30 = load double, ptr %4, align 8, !tbaa !41
  %31 = fcmp oge double %30, 0x3FF921FB54442D18
  br i1 %31, label %32, label %36

32:                                               ; preds = %19
  %33 = load ptr, ptr %3, align 8, !tbaa !3
  call void (ptr, ptr, ...) @_Z14proj_log_errorPK8PJconstsPKcz(ptr noundef %33, ptr noundef @.str.3)
  %34 = load ptr, ptr %3, align 8, !tbaa !3
  %35 = call noundef ptr @_Z21pj_default_destructorP8PJconstsi(ptr noundef %34, i32 noundef 1027)
  store ptr %35, ptr %2, align 8
  store i32 1, ptr %8, align 4
  br label %76

36:                                               ; preds = %19
  br label %37

37:                                               ; preds = %36, %1
  %38 = load ptr, ptr %3, align 8, !tbaa !3
  %39 = getelementptr inbounds nuw %struct.PJconsts, ptr %38, i32 0, i32 27
  %40 = load double, ptr %39, align 8, !tbaa !46
  %41 = fcmp une double %40, 0.000000e+00
  br i1 %41, label %42, label %61

42:                                               ; preds = %37
  %43 = load i32, ptr %5, align 4, !tbaa !45
  %44 = icmp ne i32 %43, 0
  br i1 %44, label %45, label %56

45:                                               ; preds = %42
  %46 = load double, ptr %4, align 8, !tbaa !41
  %47 = call double @sin(double noundef %46) #7, !tbaa !45
  %48 = load double, ptr %4, align 8, !tbaa !41
  %49 = call double @cos(double noundef %48) #7, !tbaa !45
  %50 = load ptr, ptr %3, align 8, !tbaa !3
  %51 = getelementptr inbounds nuw %struct.PJconsts, ptr %50, i32 0, i32 27
  %52 = load double, ptr %51, align 8, !tbaa !46
  %53 = call noundef double @_Z7pj_msfnddd(double noundef %47, double noundef %49, double noundef %52)
  %54 = load ptr, ptr %3, align 8, !tbaa !3
  %55 = getelementptr inbounds nuw %struct.PJconsts, ptr %54, i32 0, i32 66
  store double %53, ptr %55, align 8, !tbaa !47
  br label %56

56:                                               ; preds = %45, %42
  %57 = load ptr, ptr %3, align 8, !tbaa !3
  %58 = getelementptr inbounds nuw %struct.PJconsts, ptr %57, i32 0, i32 14
  store ptr @_ZL14merc_e_inverse5PJ_XYP8PJconsts, ptr %58, align 8, !tbaa !48
  %59 = load ptr, ptr %3, align 8, !tbaa !3
  %60 = getelementptr inbounds nuw %struct.PJconsts, ptr %59, i32 0, i32 13
  store ptr @_ZL14merc_e_forward5PJ_LPP8PJconsts, ptr %60, align 8, !tbaa !49
  br label %74

61:                                               ; preds = %37
  %62 = load i32, ptr %5, align 4, !tbaa !45
  %63 = icmp ne i32 %62, 0
  br i1 %63, label %64, label %69

64:                                               ; preds = %61
  %65 = load double, ptr %4, align 8, !tbaa !41
  %66 = call double @cos(double noundef %65) #7, !tbaa !45
  %67 = load ptr, ptr %3, align 8, !tbaa !3
  %68 = getelementptr inbounds nuw %struct.PJconsts, ptr %67, i32 0, i32 66
  store double %66, ptr %68, align 8, !tbaa !47
  br label %69

69:                                               ; preds = %64, %61
  %70 = load ptr, ptr %3, align 8, !tbaa !3
  %71 = getelementptr inbounds nuw %struct.PJconsts, ptr %70, i32 0, i32 14
  store ptr @_ZL14merc_s_inverse5PJ_XYP8PJconsts, ptr %71, align 8, !tbaa !48
  %72 = load ptr, ptr %3, align 8, !tbaa !3
  %73 = getelementptr inbounds nuw %struct.PJconsts, ptr %72, i32 0, i32 13
  store ptr @_ZL14merc_s_forward5PJ_LPP8PJconsts, ptr %73, align 8, !tbaa !49
  br label %74

74:                                               ; preds = %69, %56
  %75 = load ptr, ptr %3, align 8, !tbaa !3
  store ptr %75, ptr %2, align 8
  store i32 1, ptr %8, align 4
  br label %76

76:                                               ; preds = %74, %32
  call void @llvm.lifetime.end.p0(i64 4, ptr %5) #7
  call void @llvm.lifetime.end.p0(i64 8, ptr %4) #7
  %77 = load ptr, ptr %2, align 8
  ret ptr %77
}