; Function Attrs: mustprogress uwtable
define hidden noundef ptr @_Z33pj_projection_specific_setup_mercP8PJconsts(ptr noundef %0) local_unnamed_addr #0 {
  %2 = load ptr, ptr %0, align 8, !tbaa !40
  %3 = getelementptr inbounds nuw i8, ptr %0, i64 24
  %4 = load ptr, ptr %3, align 8, !tbaa !41
  %5 = tail call i64 @_Z8pj_paramP6pj_ctxP8ARG_listPKc(ptr noundef %2, ptr noundef %4, ptr noundef nonnull @.str.1)
  %6 = and i64 %5, 4294967295
  %.not = icmp eq i64 %6, 0
  br i1 %.not, label %16, label %7

7:                                                ; preds = %1
  %8 = load ptr, ptr %0, align 8, !tbaa !40
  %9 = load ptr, ptr %3, align 8, !tbaa !41
  %10 = tail call i64 @_Z8pj_paramP6pj_ctxP8ARG_listPKc(ptr noundef %8, ptr noundef %9, ptr noundef nonnull @.str.2)
  %11 = bitcast i64 %10 to double
  %12 = tail call double @llvm.fabs.f64(double %11)
  %13 = fcmp ult double %12, 0x3FF921FB54442D18
  br i1 %13, label %.thread, label %14

14:                                               ; preds = %7
  tail call void (ptr, ptr, ...) @_Z14proj_log_errorPK8PJconstsPKcz(ptr noundef nonnull %0, ptr noundef nonnull @.str.3)
  %15 = tail call noundef ptr @_Z21pj_default_destructorP8PJconstsi(ptr noundef nonnull %0, i32 noundef 1027)
  br label %37

16:                                               ; preds = %1
  %17 = getelementptr inbounds nuw i8, ptr %0, i64 216
  %18 = load double, ptr %17, align 8, !tbaa !42
  %19 = fcmp une double %18, 0.000000e+00
  br i1 %19, label %28, label %34

.thread:                                          ; preds = %7
  %20 = getelementptr inbounds nuw i8, ptr %0, i64 216
  %21 = load double, ptr %20, align 8, !tbaa !42
  %22 = fcmp une double %21, 0.000000e+00
  br i1 %22, label %23, label %31

23:                                               ; preds = %.thread
  %24 = tail call double @sin(double noundef %12) #6, !tbaa !43
  %25 = tail call double @cos(double %11)
  %26 = tail call noundef double @_Z7pj_msfnddd(double noundef %24, double noundef %25, double noundef %21)
  %27 = getelementptr inbounds nuw i8, ptr %0, i64 488
  store double %26, ptr %27, align 8, !tbaa !44
  br label %28

28:                                               ; preds = %16, %23
  %29 = getelementptr inbounds nuw i8, ptr %0, i64 112
  store ptr @_ZL14merc_e_inverse5PJ_XYP8PJconsts, ptr %29, align 8, !tbaa !45
  %30 = getelementptr inbounds nuw i8, ptr %0, i64 104
  store ptr @_ZL14merc_e_forward5PJ_LPP8PJconsts, ptr %30, align 8, !tbaa !46
  br label %37

31:                                               ; preds = %.thread
  %32 = tail call double @cos(double %11)
  %33 = getelementptr inbounds nuw i8, ptr %0, i64 488
  store double %32, ptr %33, align 8, !tbaa !44
  br label %34

34:                                               ; preds = %16, %31
  %35 = getelementptr inbounds nuw i8, ptr %0, i64 112
  store ptr @_ZL14merc_s_inverse5PJ_XYP8PJconsts, ptr %35, align 8, !tbaa !45
  %36 = getelementptr inbounds nuw i8, ptr %0, i64 104
  store ptr @_ZL14merc_s_forward5PJ_LPP8PJconsts, ptr %36, align 8, !tbaa !46
  br label %37

37:                                               ; preds = %28, %34, %14
  %.0 = phi ptr [ %15, %14 ], [ %0, %34 ], [ %0, %28 ]
  ret ptr %.0
}